; Function Attrs: mustprogress uwtable
define dso_local noundef zeroext i1 @_ZNK7cmState17IsPropertyChainedERKNSt7__cxx1112basic_stringIcSt11char_traitsIcESaIcEEEN10cmProperty9ScopeTypeE(ptr noundef nonnull align 8 dereferenceable(705) %0, ptr noundef nonnull align 8 dereferenceable(32) %1, i32 noundef %2) local_unnamed_addr #5 align 2 {
  %4 = tail call noundef ptr @_ZNK23cmPropertyDefinitionMap21GetPropertyDefinitionERKNSt7__cxx1112basic_stringIcSt11char_traitsIcESaIcEEEN10cmProperty9ScopeTypeE(ptr noundef nonnull align 8 dereferenceable(705) %0, ptr noundef nonnull align 8 dereferenceable(32) %1, i32 noundef %2)
  %.not.not.not = icmp eq ptr %4, null
  br i1 %.not.not.not, label %9, label %5

5:                                                ; preds = %3
  %6 = getelementptr inbounds nuw i8, ptr %4, i64 64
  %7 = load i8, ptr %6, align 8, !tbaa !205, !range !126, !noundef !127
  %8 = trunc nuw i8 %7 to i1
  br label %9

9:                                                ; preds = %3, %5
  %spec.select = phi i1 [ %8, %5 ], [ false, %3 ]
  ret i1 %spec.select
}